; Function Attrs: mustprogress nofree norecurse nosync nounwind willreturn memory(argmem: read) uwtable
define noundef double @_ZNK32pxrInternal_v0_24__pxrReserved__10GfMatrix4d14GetDeterminantEv(ptr nocapture noundef nonnull readonly align 8 dereferenceable(128) %0) local_unnamed_addr #6 align 2 {
  %2 = getelementptr inbounds i8, ptr %0, i64 24
  %3 = load double, ptr %2, align 8
  %4 = fneg double %3
  %5 = getelementptr inbounds i8, ptr %0, i64 32
  %6 = load double, ptr %5, align 8
  %7 = getelementptr inbounds i8, ptr %0, i64 64
  %8 = getelementptr inbounds i8, ptr %0, i64 72
  %9 = load double, ptr %8, align 8
  %10 = fmul double %6, %9
  %11 = getelementptr inbounds i8, ptr %0, i64 96
  %12 = getelementptr inbounds i8, ptr %0, i64 112
  %13 = load double, ptr %12, align 8
  %14 = getelementptr inbounds i8, ptr %0, i64 40
  %15 = load double, ptr %14, align 8
  %16 = getelementptr inbounds i8, ptr %0, i64 80
  %17 = load double, ptr %16, align 8
  %18 = fmul double %15, %17
  %19 = load double, ptr %11, align 8
  %20 = fmul double %18, %19
  %21 = tail call double @llvm.fmuladd.f64(double %10, double %13, double %20)
  %22 = getelementptr inbounds i8, ptr %0, i64 48
  %23 = load double, ptr %22, align 8
  %24 = load double, ptr %7, align 8
  %25 = fmul double %23, %24
  %26 = getelementptr inbounds i8, ptr %0, i64 104
  %27 = load double, ptr %26, align 8
  %28 = tail call double @llvm.fmuladd.f64(double %25, double %27, double %21)
  %29 = fneg double %17
  %30 = fmul double %6, %29
  %31 = tail call double @llvm.fmuladd.f64(double %30, double %27, double %28)
  %32 = fneg double %24
  %33 = fmul double %15, %32
  %34 = tail call double @llvm.fmuladd.f64(double %33, double %13, double %31)
  %35 = fneg double %9
  %36 = fmul double %23, %35
  %37 = tail call noundef double @llvm.fmuladd.f64(double %36, double %19, double %34)
  %38 = getelementptr inbounds i8, ptr %0, i64 56
  %39 = load double, ptr %38, align 8
  %40 = load double, ptr %0, align 8
  %41 = fmul double %9, %40
  %42 = getelementptr inbounds i8, ptr %0, i64 8
  %43 = load double, ptr %42, align 8
  %44 = fmul double %17, %43
  %45 = fmul double %19, %44
  %46 = tail call double @llvm.fmuladd.f64(double %41, double %13, double %45)
  %47 = getelementptr inbounds i8, ptr %0, i64 16
  %48 = load double, ptr %47, align 8
  %49 = fmul double %24, %48
  %50 = tail call double @llvm.fmuladd.f64(double %49, double %27, double %46)
  %51 = fmul double %40, %29
  %52 = tail call double @llvm.fmuladd.f64(double %51, double %27, double %50)
  %53 = fmul double %43, %32
  %54 = tail call double @llvm.fmuladd.f64(double %53, double %13, double %52)
  %55 = fmul double %48, %35
  %56 = tail call noundef double @llvm.fmuladd.f64(double %55, double %19, double %54)
  %57 = fmul double %39, %56
  %58 = tail call double @llvm.fmuladd.f64(double %4, double %37, double %57)
  %59 = getelementptr inbounds i8, ptr %0, i64 88
  %60 = load double, ptr %59, align 8
  %61 = fmul double %15, %40
  %62 = fmul double %23, %43
  %63 = fmul double %19, %62
  %64 = tail call double @llvm.fmuladd.f64(double %61, double %13, double %63)
  %65 = fmul double %6, %48
  %66 = tail call double @llvm.fmuladd.f64(double %65, double %27, double %64)
  %67 = fneg double %23
  %68 = fmul double %40, %67
  %69 = tail call double @llvm.fmuladd.f64(double %68, double %27, double %66)
  %70 = fneg double %6
  %71 = fmul double %43, %70
  %72 = tail call double @llvm.fmuladd.f64(double %71, double %13, double %69)
  %73 = fneg double %15
  %74 = fmul double %48, %73
  %75 = tail call noundef double @llvm.fmuladd.f64(double %74, double %19, double %72)
  %76 = fneg double %60
  %77 = tail call double @llvm.fmuladd.f64(double %76, double %75, double %58)
  %78 = getelementptr inbounds i8, ptr %0, i64 120
  %79 = load double, ptr %78, align 8
  %80 = fmul double %24, %62
  %81 = tail call double @llvm.fmuladd.f64(double %61, double %17, double %80)
  %82 = tail call double @llvm.fmuladd.f64(double %65, double %9, double %81)
  %83 = tail call double @llvm.fmuladd.f64(double %68, double %9, double %82)
  %84 = tail call double @llvm.fmuladd.f64(double %71, double %17, double %83)
  %85 = tail call noundef double @llvm.fmuladd.f64(double %74, double %24, double %84)
  %86 = tail call double @llvm.fmuladd.f64(double %79, double %85, double %77)
  ret double %86
}